
/home/ubuntu/MIT_BSV/6.175lab5/programs/benchmarks/../build/benchmarks/bin/median.riscv:     file format elf32-littleriscv


Disassembly of section .text:

00000100 <user_trap_entry>:
 100:	1ac0006f          	j	2ac <trap_entry>
 104:	00000013          	nop
 108:	00000013          	nop
 10c:	00000013          	nop
 110:	00000013          	nop
 114:	00000013          	nop
 118:	00000013          	nop
 11c:	00000013          	nop
 120:	00000013          	nop
 124:	00000013          	nop
 128:	00000013          	nop
 12c:	00000013          	nop
 130:	00000013          	nop
 134:	00000013          	nop
 138:	00000013          	nop
 13c:	00000013          	nop

00000140 <supervisor_trap_entry>:
 140:	0000006f          	j	140 <supervisor_trap_entry>
 144:	00000013          	nop
 148:	00000013          	nop
 14c:	00000013          	nop
 150:	00000013          	nop
 154:	00000013          	nop
 158:	00000013          	nop
 15c:	00000013          	nop
 160:	00000013          	nop
 164:	00000013          	nop
 168:	00000013          	nop
 16c:	00000013          	nop
 170:	00000013          	nop
 174:	00000013          	nop
 178:	00000013          	nop
 17c:	00000013          	nop

00000180 <hypervisor_trap_entry>:
 180:	0000006f          	j	180 <hypervisor_trap_entry>
 184:	00000013          	nop
 188:	00000013          	nop
 18c:	00000013          	nop
 190:	00000013          	nop
 194:	00000013          	nop
 198:	00000013          	nop
 19c:	00000013          	nop
 1a0:	00000013          	nop
 1a4:	00000013          	nop
 1a8:	00000013          	nop
 1ac:	00000013          	nop
 1b0:	00000013          	nop
 1b4:	00000013          	nop
 1b8:	00000013          	nop
 1bc:	00000013          	nop

000001c0 <machine_trap_entry>:
 1c0:	0ec0006f          	j	2ac <trap_entry>
 1c4:	00000013          	nop
 1c8:	00000013          	nop
 1cc:	00000013          	nop
 1d0:	00000013          	nop
 1d4:	00000013          	nop
 1d8:	00000013          	nop
 1dc:	00000013          	nop
 1e0:	00000013          	nop
 1e4:	00000013          	nop
 1e8:	00000013          	nop
 1ec:	00000013          	nop
 1f0:	00000013          	nop
 1f4:	00000013          	nop
 1f8:	00000013          	nop
 1fc:	00000013          	nop

00000200 <_start>:
 200:	00000093          	li	ra,0
 204:	00000113          	li	sp,0
 208:	00000193          	li	gp,0
 20c:	00000213          	li	tp,0
 210:	00000293          	li	t0,0
 214:	00000313          	li	t1,0
 218:	00000393          	li	t2,0
 21c:	00000413          	li	s0,0
 220:	00000493          	li	s1,0
 224:	00000513          	li	a0,0
 228:	00000593          	li	a1,0
 22c:	00000613          	li	a2,0
 230:	00000693          	li	a3,0
 234:	00000713          	li	a4,0
 238:	00000793          	li	a5,0
 23c:	00000813          	li	a6,0
 240:	00000893          	li	a7,0
 244:	00000913          	li	s2,0
 248:	00000993          	li	s3,0
 24c:	00000a13          	li	s4,0
 250:	00000a93          	li	s5,0
 254:	00000b13          	li	s6,0
 258:	00000b93          	li	s7,0
 25c:	00000c13          	li	s8,0
 260:	00000c93          	li	s9,0
 264:	00000d13          	li	s10,0
 268:	00000d93          	li	s11,0
 26c:	00000e13          	li	t3,0
 270:	00000e93          	li	t4,0
 274:	00000f13          	li	t5,0
 278:	00000f93          	li	t6,0
 27c:	00001197          	auipc	gp,0x1
 280:	7dc18193          	addi	gp,gp,2012 # 1a58 <_gp>
 284:	00001217          	auipc	tp,0x1
 288:	01320213          	addi	tp,tp,19 # 1297 <_end+0x3f>
 28c:	fc027213          	andi	tp,tp,-64
 290:	f1402573          	csrr	a0,mhartid
 294:	01151613          	slli	a2,a0,0x11
 298:	00c20233          	add	tp,tp,a2
 29c:	00150113          	addi	sp,a0,1
 2a0:	01111113          	slli	sp,sp,0x11
 2a4:	00410133          	add	sp,sp,tp
 2a8:	20a0006f          	j	4b2 <_init>

000002ac <trap_entry>:
 2ac:	ef010113          	addi	sp,sp,-272
 2b0:	00112423          	sw	ra,8(sp)
 2b4:	00212823          	sw	sp,16(sp)
 2b8:	00312c23          	sw	gp,24(sp)
 2bc:	02412023          	sw	tp,32(sp)
 2c0:	02512423          	sw	t0,40(sp)
 2c4:	02612823          	sw	t1,48(sp)
 2c8:	02712c23          	sw	t2,56(sp)
 2cc:	04812023          	sw	s0,64(sp)
 2d0:	04912423          	sw	s1,72(sp)
 2d4:	04a12823          	sw	a0,80(sp)
 2d8:	04b12c23          	sw	a1,88(sp)
 2dc:	06c12023          	sw	a2,96(sp)
 2e0:	06d12423          	sw	a3,104(sp)
 2e4:	06e12823          	sw	a4,112(sp)
 2e8:	06f12c23          	sw	a5,120(sp)
 2ec:	09012023          	sw	a6,128(sp)
 2f0:	09112423          	sw	a7,136(sp)
 2f4:	09212823          	sw	s2,144(sp)
 2f8:	09312c23          	sw	s3,152(sp)
 2fc:	0b412023          	sw	s4,160(sp)
 300:	0b512423          	sw	s5,168(sp)
 304:	0b612823          	sw	s6,176(sp)
 308:	0b712c23          	sw	s7,184(sp)
 30c:	0d812023          	sw	s8,192(sp)
 310:	0d912423          	sw	s9,200(sp)
 314:	0da12823          	sw	s10,208(sp)
 318:	0db12c23          	sw	s11,216(sp)
 31c:	0fc12023          	sw	t3,224(sp)
 320:	0fd12423          	sw	t4,232(sp)
 324:	0fe12823          	sw	t5,240(sp)
 328:	0ff12c23          	sw	t6,248(sp)
 32c:	34202573          	csrr	a0,mcause
 330:	341025f3          	csrr	a1,mepc
 334:	00010613          	mv	a2,sp
 338:	174000ef          	jal	4ac <handle_trap>
 33c:	34151073          	csrw	mepc,a0
 340:	00812083          	lw	ra,8(sp)
 344:	01012103          	lw	sp,16(sp)
 348:	01812183          	lw	gp,24(sp)
 34c:	02012203          	lw	tp,32(sp)
 350:	02812283          	lw	t0,40(sp)
 354:	03012303          	lw	t1,48(sp)
 358:	03812383          	lw	t2,56(sp)
 35c:	04012403          	lw	s0,64(sp)
 360:	04812483          	lw	s1,72(sp)
 364:	05012503          	lw	a0,80(sp)
 368:	05812583          	lw	a1,88(sp)
 36c:	06012603          	lw	a2,96(sp)
 370:	06812683          	lw	a3,104(sp)
 374:	07012703          	lw	a4,112(sp)
 378:	07812783          	lw	a5,120(sp)
 37c:	08012803          	lw	a6,128(sp)
 380:	08812883          	lw	a7,136(sp)
 384:	09012903          	lw	s2,144(sp)
 388:	09812983          	lw	s3,152(sp)
 38c:	0a012a03          	lw	s4,160(sp)
 390:	0a812a83          	lw	s5,168(sp)
 394:	0b012b03          	lw	s6,176(sp)
 398:	0b812b83          	lw	s7,184(sp)
 39c:	0c012c03          	lw	s8,192(sp)
 3a0:	0c812c83          	lw	s9,200(sp)
 3a4:	0d012d03          	lw	s10,208(sp)
 3a8:	0d812d83          	lw	s11,216(sp)
 3ac:	0e012e03          	lw	t3,224(sp)
 3b0:	0e812e83          	lw	t4,232(sp)
 3b4:	0f012f03          	lw	t5,240(sp)
 3b8:	0f812f83          	lw	t6,248(sp)
 3bc:	11010113          	addi	sp,sp,272
 3c0:	30200073          	mret

000003c4 <median>:
 3c4:	00251793          	slli	a5,a0,0x2
 3c8:	17f1                	addi	a5,a5,-4
 3ca:	00f60733          	add	a4,a2,a5
 3ce:	00062023          	sw	zero,0(a2)
 3d2:	00072023          	sw	zero,0(a4)
 3d6:	4709                	li	a4,2
 3d8:	02a75563          	bge	a4,a0,402 <median+0x3e>
 3dc:	00b78533          	add	a0,a5,a1
 3e0:	0611                	addi	a2,a2,4
 3e2:	1571                	addi	a0,a0,-4
 3e4:	41dc                	lw	a5,4(a1)
 3e6:	4198                	lw	a4,0(a1)
 3e8:	4594                	lw	a3,8(a1)
 3ea:	00f75d63          	bge	a4,a5,404 <median+0x40>
 3ee:	00d7c563          	blt	a5,a3,3f8 <median+0x34>
 3f2:	87ba                	mv	a5,a4
 3f4:	00d74c63          	blt	a4,a3,40c <median+0x48>
 3f8:	c21c                	sw	a5,0(a2)
 3fa:	0591                	addi	a1,a1,4
 3fc:	0611                	addi	a2,a2,4
 3fe:	fea593e3          	bne	a1,a0,3e4 <median+0x20>
 402:	8082                	ret
 404:	00d74b63          	blt	a4,a3,41a <median+0x56>
 408:	fed7d8e3          	bge	a5,a3,3f8 <median+0x34>
 40c:	87b6                	mv	a5,a3
 40e:	c21c                	sw	a5,0(a2)
 410:	0591                	addi	a1,a1,4
 412:	0611                	addi	a2,a2,4
 414:	fca598e3          	bne	a1,a0,3e4 <median+0x20>
 418:	8082                	ret
 41a:	87ba                	mv	a5,a4
 41c:	c21c                	sw	a5,0(a2)
 41e:	0591                	addi	a1,a1,4
 420:	0611                	addi	a2,a2,4
 422:	fca591e3          	bne	a1,a0,3e4 <median+0x20>
 426:	8082                	ret

00000428 <printInt>:
 428:	01051793          	slli	a5,a0,0x10
 42c:	00020737          	lui	a4,0x20
 430:	83c1                	srli	a5,a5,0x10
 432:	8fd9                	or	a5,a5,a4
 434:	34079073          	csrw	mscratch,a5
 438:	000307b7          	lui	a5,0x30
 43c:	8141                	srli	a0,a0,0x10
 43e:	8d5d                	or	a0,a0,a5
 440:	34051073          	csrw	mscratch,a0
 444:	8082                	ret

00000446 <printChar>:
 446:	0542                	slli	a0,a0,0x10
 448:	67c1                	lui	a5,0x10
 44a:	8141                	srli	a0,a0,0x10
 44c:	8d5d                	or	a0,a0,a5
 44e:	34051073          	csrw	mscratch,a0
 452:	8082                	ret

00000454 <printStr>:
 454:	ffc57793          	andi	a5,a0,-4
 458:	4394                	lw	a3,0(a5)
 45a:	00351713          	slli	a4,a0,0x3
 45e:	8b61                	andi	a4,a4,24
 460:	0ff00793          	li	a5,255
 464:	00e797b3          	sll	a5,a5,a4
 468:	8ff5                	and	a5,a5,a3
 46a:	00e7d7b3          	srl	a5,a5,a4
 46e:	cb85                	beqz	a5,49e <printStr+0x4a>
 470:	6641                	lui	a2,0x10
 472:	fff60813          	addi	a6,a2,-1 # ffff <_gp+0xe5a7>
 476:	0ff00593          	li	a1,255
 47a:	0107f7b3          	and	a5,a5,a6
 47e:	8fd1                	or	a5,a5,a2
 480:	34079073          	csrw	mscratch,a5
 484:	0505                	addi	a0,a0,1
 486:	ffc57793          	andi	a5,a0,-4
 48a:	4394                	lw	a3,0(a5)
 48c:	00351713          	slli	a4,a0,0x3
 490:	8b61                	andi	a4,a4,24
 492:	00e597b3          	sll	a5,a1,a4
 496:	8ff5                	and	a5,a5,a3
 498:	00e7d7b3          	srl	a5,a5,a4
 49c:	fff9                	bnez	a5,47a <printStr+0x26>
 49e:	8082                	ret

000004a0 <toHostExit>:
 4a0:	01051793          	slli	a5,a0,0x10
 4a4:	83c1                	srli	a5,a5,0x10
 4a6:	34079073          	csrw	mscratch,a5
 4aa:	a001                	j	4aa <toHostExit+0xa>

000004ac <handle_trap>:
 4ac:	00458513          	addi	a0,a1,4
 4b0:	8082                	ret

000004b2 <_init>:
 4b2:	1141                	addi	sp,sp,-16
 4b4:	4581                	li	a1,0
 4b6:	4501                	li	a0,0
 4b8:	c606                	sw	ra,12(sp)
 4ba:	2801                	jal	4ca <main>
 4bc:	01051793          	slli	a5,a0,0x10
 4c0:	83c1                	srli	a5,a5,0x10
 4c2:	34079073          	csrw	mscratch,a5
 4c6:	a001                	j	4c6 <_init+0x14>
 4c8:	0000                	unimp

Disassembly of section .text.startup:

000004ca <main>:
 4ca:	9a010113          	addi	sp,sp,-1632
 4ce:	58c00513          	li	a0,1420
 4d2:	64112e23          	sw	ra,1628(sp)
 4d6:	64812c23          	sw	s0,1624(sp)
 4da:	64912a23          	sw	s1,1620(sp)
 4de:	65212823          	sw	s2,1616(sp)
 4e2:	65312623          	sw	s3,1612(sp)
 4e6:	37bd                	jal	454 <printStr>
 4e8:	c00024f3          	rdcycle	s1
 4ec:	c02029f3          	rdinstret	s3
 4f0:	860a                	mv	a2,sp
 4f2:	5d800593          	li	a1,1496
 4f6:	19000513          	li	a0,400
 4fa:	5d800413          	li	s0,1496
 4fe:	35d9                	jal	3c4 <median>
 500:	c0002973          	rdcycle	s2
 504:	40990933          	sub	s2,s2,s1
 508:	c02024f3          	rdinstret	s1
 50c:	5a000513          	li	a0,1440
 510:	3791                	jal	454 <printStr>
 512:	854a                	mv	a0,s2
 514:	3f11                	jal	428 <printInt>
 516:	4529                	li	a0,10
 518:	373d                	jal	446 <printChar>
 51a:	5ac00513          	li	a0,1452
 51e:	3f1d                	jal	454 <printStr>
 520:	413484b3          	sub	s1,s1,s3
 524:	8526                	mv	a0,s1
 526:	3709                	jal	428 <printInt>
 528:	4529                	li	a0,10
 52a:	3f31                	jal	446 <printChar>
 52c:	64040793          	addi	a5,s0,1600
 530:	870a                	mv	a4,sp
 532:	4401                	li	s0,0
 534:	19000593          	li	a1,400
 538:	a021                	j	540 <main+0x76>
 53a:	0791                	addi	a5,a5,4 # 10004 <_gp+0xe5ac>
 53c:	02b40d63          	beq	s0,a1,576 <main+0xac>
 540:	4310                	lw	a2,0(a4)
 542:	4394                	lw	a3,0(a5)
 544:	0405                	addi	s0,s0,1
 546:	0711                	addi	a4,a4,4 # 20004 <_gp+0x1e5ac>
 548:	fed609e3          	beq	a2,a3,53a <main+0x70>
 54c:	5b800513          	li	a0,1464
 550:	3711                	jal	454 <printStr>
 552:	8522                	mv	a0,s0
 554:	3dd1                	jal	428 <printInt>
 556:	4529                	li	a0,10
 558:	35fd                	jal	446 <printChar>
 55a:	65c12083          	lw	ra,1628(sp)
 55e:	8522                	mv	a0,s0
 560:	65812403          	lw	s0,1624(sp)
 564:	65412483          	lw	s1,1620(sp)
 568:	65012903          	lw	s2,1616(sp)
 56c:	64c12983          	lw	s3,1612(sp)
 570:	66010113          	addi	sp,sp,1632
 574:	8082                	ret
 576:	4401                	li	s0,0
 578:	bfd1                	j	54c <main+0x82>
 57a:	1141                	addi	sp,sp,-16
 57c:	5c000513          	li	a0,1472
 580:	c606                	sw	ra,12(sp)
 582:	3dc9                	jal	454 <printStr>
 584:	40b2                	lw	ra,12(sp)
 586:	557d                	li	a0,-1
 588:	0141                	addi	sp,sp,16
 58a:	8082                	ret

Disassembly of section .data:

000005d8 <input_data>:
     5d8:	0029 0000 01c6 0000 0341 0000 014f 0000     ).......A...O...
     5e8:	0234 0000 0001 0000 00bb 0000 03dd 0000     4...............
     5f8:	02ed 0000 016d 0000 015e 0000 023c 0000     ....m...^...<...
     608:	0084 0000 0040 0000 03b5 0000 0099 0000     ....@...........
     618:	0248 0000 00d8 0000 0325 0000 008c 0000     H.......%.......
     628:	026d 0000 00d2 0000 0006 0000 023c 0000     m...........<...
     638:	03a3 0000 0153 0000 037a 0000 0251 0000     ....S...z...Q...
     648:	0188 0000 0382 0000 02b6 0000 00e4 0000     ................
     658:	03c1 0000 000c 0000 006e 0000 0373 0000     ........n...s...
     668:	0074 0000 02ee 0000 0128 0000 0286 0000     t.......(.......
     678:	01aa 0000 01f4 0000 013a 0000 01b4 0000     ........:.......
     688:	0293 0000 02bd 0000 0306 0000 032c 0000     ............,...
     698:	013f 0000 03d5 0000 02a6 0000 0096 0000     ?...............
     6a8:	036b 0000 02b8 0000 0178 0000 0234 0000     k.......x...4...
     6b8:	01da 0000 0110 0000 03aa 0000 0102 0000     ................
     6c8:	021b 0000 0287 0000 0239 0000 01fd 0000     ........9.......
     6d8:	00cb 0000 0058 0000 0118 0000 02bf 0000     ....X...........
     6e8:	02f7 0000 029d 0000 025e 0000 0177 0000     ........^...w...
     6f8:	01ff 0000 0227 0000 0291 0000 03a8 0000     ....'...........
     708:	00c3 0000 0250 0000 0051 0000 0239 0000     ....P...Q...9...
     718:	010b 0000 03b8 0000 00e5 0000 0320 0000     ............ ...
     728:	0151 0000 0248 0000 03b0 0000 0283 0000     Q...H...........
     738:	0386 0000 0170 0000 00f1 0000 01e9 0000     ....p...........
     748:	0391 0000 0148 0000 033a 0000 0139 0000     ....H...:...9...
     758:	03a5 0000 0250 0000 03d9 0000 0184 0000     ....P...........
     768:	00c3 0000 021f 0000 03c0 0000 0289 0000     ................
     778:	0236 0000 03d3 0000 015e 0000 03e5 0000     6.......^.......
     788:	0289 0000 032e 0000 0291 0000 004f 0000     ............O...
     798:	00b5 0000 00d0 0000 006f 0000 03e6 0000     ........o.......
     7a8:	035b 0000 0275 0000 0041 0000 034f 0000     [...u...A...O...
     7b8:	0120 0000 02c0 0000 015d 0000 03e5 0000      .......].......
     7c8:	008d 0000 00fd 0000 0389 0000 02cb 0000     ................
     7d8:	0376 0000 01ae 0000 0108 0000 019f 0000     v...............
     7e8:	0240 0000 021a 0000 03d3 0000 02bc 0000     @...............
     7f8:	02f9 0000 0004 0000 00f1 0000 01ee 0000     ................
     808:	01de 0000 0064 0000 01f3 0000 0360 0000     ....d.......`...
     818:	0193 0000 02b5 0000 00de 0000 01a0 0000     ................
     828:	01bc 0000 0128 0000 02d1 0000 011d 0000     ....(...........
     838:	02a4 0000 026c 0000 013d 0000 004e 0000     ....l...=...N...
     848:	00e0 0000 015f 0000 03a9 0000 021c 0000     ...._...........
     858:	0120 0000 0286 0000 0077 0000 00a9 0000      .......w.......
     868:	0267 0000 020f 0000 025e 0000 0121 0000     g.......^...!...
     878:	0185 0000 031c 0000 015f 0000 0321 0000     ........_...!...
     888:	01c7 0000 02d0 0000 0116 0000 02f6 0000     ................
     898:	016f 0000 02e9 0000 0166 0000 005c 0000     o.......f...\...
     8a8:	0248 0000 03dd 0000 003e 0000 010f 0000     H.......>.......
     8b8:	03d9 0000 0355 0000 0193 0000 0314 0000     ....U...........
     8c8:	015a 0000 0213 0000 0205 0000 00de 0000     Z...............
     8d8:	022f 0000 01cd 0000 038c 0000 00f1 0000     /...............
     8e8:	0307 0000 0166 0000 00ff 0000 014c 0000     ....f.......L...
     8f8:	030a 0000 02ac 0000 0256 0000 02e4 0000     ........V.......
     908:	008f 0000 01be 0000 0021 0000 0137 0000     ........!...7...
     918:	007d 0000 02e7 0000 03ad 0000 022d 0000     }...........-...
     928:	03a5 0000 01df 0000 031f 0000 022d 0000     ............-...
     938:	0229 0000 039d 0000 01af 0000 031c 0000     )...............
     948:	0288 0000 0165 0000 03b8 0000 037b 0000     ....e.......{...
     958:	011f 0000 029a 0000 0013 0000 0202 0000     ................
     968:	0031 0000 022d 0000 0056 0000 0366 0000     1...-...V...f...
     978:	005f 0000 0355 0000 01b9 0000 01b8 0000     _...U...........
     988:	024b 0000 003d 0000 0266 0000 02a6 0000     K...=...f.......
     998:	017e 0000 018c 0000 0118 0000 0009 0000     ~...............
     9a8:	0328 0000 0011 0000 03cb 0000 00aa 0000     (...............
     9b8:	0333 0000 0123 0000 0158 0000 017c 0000     3...#...X...|...
     9c8:	01c2 0000 0218 0000 0200 0000 00b9 0000     ................
     9d8:	03c5 0000 0395 0000 015b 0000 021b 0000     ........[.......
     9e8:	0328 0000 03d7 0000 0372 0000 0377 0000     (.......r...w...
     9f8:	0219 0000 0036 0000 03b2 0000 0264 0000     ....6.......d...
     a08:	02bd 0000 03b7 0000 0164 0000 01df 0000     ........d.......
     a18:	0237 0000 0097 0000 037b 0000 0007 0000     7.......{.......
     a28:	0016 0000 0281 0000 0238 0000 014f 0000     ........8...O...
     a38:	0299 0000 02da 0000 01a7 0000 005f 0000     ............_...
     a48:	01b2 0000 02d8 0000 009e 0000 0118 0000     ................
     a58:	0002 0000 018b 0000 0054 0000 02b0 0000     ........T.......
     a68:	00f7 0000 038f 0000 0031 0000 01dc 0000     ........1.......
     a78:	01b3 0000 032f 0000 0318 0000 02d9 0000     ..../...........
     a88:	0365 0000 0109 0000 01e6 0000 007f 0000     e...............
     a98:	019e 0000 00ec 0000 0171 0000 00d6 0000     ........q.......
     aa8:	0224 0000 00b4 0000 0206 0000 0006 0000     $...............
     ab8:	0378 0000 01f7 0000 02aa 0000 0254 0000     x...........T...
     ac8:	011c 0000 00ad 0000 0108 0000 0283 0000     ................
     ad8:	01f3 0000 015a 0000 0122 0000 0257 0000     ....Z..."...W...
     ae8:	0381 0000 0044 0000 00d7 0000 0351 0000     ....D.......Q...
     af8:	02db 0000 0292 0000 02b0 0000 026b 0000     ............k...
     b08:	00fb 0000 0079 0000 0312 0000 0083 0000     ....y...........
     b18:	022b 0000 033c 0000 012e 0000 029b 0000     +...<...........
     b28:	0210 0000 01b1 0000 0220 0000 01e7 0000     ........ .......
     b38:	0142 0000 02f1 0000 03b3 0000 007d 0000     B...........}...
     b48:	011f 0000 0272 0000 0338 0000 000e 0000     ....r...8.......
     b58:	0130 0000 000a 0000 0314 0000 0193 0000     0...............
     b68:	02dd 0000 006a 0000 03bf 0000 02bf 0000     ....j...........
     b78:	016e 0000 0332 0000 02d2 0000 03c4 0000     n...2...........
     b88:	0126 0000 0196 0000 03cf 0000 036a 0000     &...........j...
     b98:	028d 0000 0358 0000 02ec 0000 0056 0000     ....X.......V...
     ba8:	005b 0000 003c 0000 017a 0000 0294 0000     [...<...z.......
     bb8:	0069 0000 029b 0000 0066 0000 0099 0000     i.......f.......
     bc8:	017d 0000 0079 0000 028b 0000 0062 0000     }...y.......b...
     bd8:	0339 0000 019c 0000 0348 0000 00ec 0000     9.......H.......
     be8:	0164 0000 000c 0000 0094 0000 01a7 0000     d...............
     bf8:	0036 0000 03c5 0000 008c 0000 00d8 0000     6...............
     c08:	03bb 0000 026d 0000 0157 0000 0169 0000     ....m...W...i...

00000c18 <verify_data>:
     c18:	0000 0000 01c6 0000 01c6 0000 0234 0000     ............4...
     c28:	014f 0000 00bb 0000 00bb 0000 02ed 0000     O...............
     c38:	02ed 0000 016d 0000 016d 0000 015e 0000     ....m...m...^...
     c48:	0084 0000 0084 0000 0099 0000 0248 0000     ............H...
     c58:	00d8 0000 0248 0000 00d8 0000 026d 0000     ....H.......m...
     c68:	00d2 0000 00d2 0000 00d2 0000 023c 0000     ............<...
     c78:	023c 0000 037a 0000 0251 0000 0251 0000     <...z...Q...Q...
     c88:	0251 0000 02b6 0000 02b6 0000 02b6 0000     Q...............
     c98:	00e4 0000 006e 0000 006e 0000 0074 0000     ....n...n...t...
     ca8:	02ee 0000 0128 0000 0286 0000 01aa 0000     ....(...........
     cb8:	01f4 0000 01aa 0000 01b4 0000 01b4 0000     ................
     cc8:	0293 0000 02bd 0000 0306 0000 0306 0000     ................
     cd8:	032c 0000 02a6 0000 02a6 0000 02a6 0000     ,...............
     ce8:	02b8 0000 02b8 0000 0234 0000 01da 0000     ........4.......
     cf8:	01da 0000 01da 0000 0110 0000 021b 0000     ................
     d08:	021b 0000 0239 0000 0239 0000 01fd 0000     ....9...9.......
     d18:	00cb 0000 00cb 0000 0118 0000 02bf 0000     ................
     d28:	02bf 0000 029d 0000 025e 0000 01ff 0000     ........^.......
     d38:	01ff 0000 0227 0000 0291 0000 0291 0000     ....'...........
     d48:	0250 0000 00c3 0000 0239 0000 010b 0000     P.......9.......
     d58:	0239 0000 010b 0000 0320 0000 0151 0000     9....... ...Q...
     d68:	0248 0000 0248 0000 0283 0000 0386 0000     H...H...........
     d78:	0283 0000 0170 0000 0170 0000 01e9 0000     ....p...p.......
     d88:	01e9 0000 033a 0000 0148 0000 033a 0000     ....:...H...:...
     d98:	0250 0000 03a5 0000 0250 0000 0184 0000     P.......P.......
     da8:	0184 0000 021f 0000 0289 0000 0289 0000     ................
     db8:	0289 0000 0236 0000 03d3 0000 0289 0000     ....6...........
     dc8:	032e 0000 0291 0000 0291 0000 00b5 0000     ................
     dd8:	00b5 0000 00b5 0000 00d0 0000 035b 0000     ............[...
     de8:	035b 0000 0275 0000 0275 0000 0120 0000     [...u...u... ...
     df8:	02c0 0000 015d 0000 02c0 0000 015d 0000     ....].......]...
     e08:	00fd 0000 00fd 0000 02cb 0000 0376 0000     ............v...
     e18:	02cb 0000 01ae 0000 019f 0000 019f 0000     ................
     e28:	021a 0000 0240 0000 02bc 0000 02f9 0000     ....@...........
     e38:	02bc 0000 00f1 0000 00f1 0000 01de 0000     ................
     e48:	01de 0000 01de 0000 01f3 0000 01f3 0000     ................
     e58:	02b5 0000 0193 0000 01a0 0000 01a0 0000     ................
     e68:	01a0 0000 01bc 0000 0128 0000 02a4 0000     ........(.......
     e78:	026c 0000 026c 0000 013d 0000 00e0 0000     l...l...=.......
     e88:	00e0 0000 015f 0000 021c 0000 021c 0000     ...._...........
     e98:	021c 0000 0120 0000 00a9 0000 00a9 0000     .... ...........
     ea8:	020f 0000 025e 0000 020f 0000 0185 0000     ....^...........
     eb8:	0185 0000 0185 0000 031c 0000 01c7 0000     ................
     ec8:	02d0 0000 01c7 0000 02d0 0000 016f 0000     ............o...
     ed8:	02e9 0000 016f 0000 0166 0000 0166 0000     ....o...f...f...
     ee8:	0248 0000 0248 0000 010f 0000 010f 0000     H...H...........
     ef8:	0355 0000 0355 0000 0314 0000 0193 0000     U...U...........
     f08:	0213 0000 0205 0000 0205 0000 0205 0000     ................
     f18:	01cd 0000 022f 0000 01cd 0000 0307 0000     ..../...........
     f28:	0166 0000 0166 0000 014c 0000 014c 0000     f...f...L...L...
     f38:	02ac 0000 02ac 0000 02ac 0000 0256 0000     ............V...
     f48:	01be 0000 008f 0000 0137 0000 007d 0000     ........7...}...
     f58:	0137 0000 02e7 0000 02e7 0000 03a5 0000     7...............
     f68:	022d 0000 031f 0000 022d 0000 022d 0000     -.......-...-...
     f78:	022d 0000 0229 0000 031c 0000 0288 0000     -...)...........
     f88:	0288 0000 0288 0000 037b 0000 037b 0000     ........{...{...
     f98:	029a 0000 011f 0000 0202 0000 0031 0000     ............1...
     fa8:	0202 0000 0056 0000 022d 0000 005f 0000     ....V...-..._...
     fb8:	0355 0000 01b9 0000 01b9 0000 01b9 0000     U...............
     fc8:	01b8 0000 024b 0000 0266 0000 0266 0000     ....K...f...f...
     fd8:	018c 0000 017e 0000 0118 0000 0118 0000     ....~...........
     fe8:	0011 0000 0328 0000 00aa 0000 0333 0000     ....(.......3...
     ff8:	0123 0000 0158 0000 0158 0000 017c 0000     #...X...X...|...
    1008:	01c2 0000 0200 0000 0200 0000 0200 0000     ................
    1018:	0395 0000 0395 0000 021b 0000 021b 0000     ................
    1028:	0328 0000 0372 0000 0377 0000 0372 0000     (...r...w...r...
    1038:	0219 0000 0219 0000 0264 0000 02bd 0000     ........d.......
    1048:	02bd 0000 02bd 0000 01df 0000 01df 0000     ................
    1058:	01df 0000 0237 0000 0097 0000 0016 0000     ....7...........
    1068:	0016 0000 0238 0000 0238 0000 0238 0000     ....8...8...8...
    1078:	0299 0000 0299 0000 01a7 0000 01a7 0000     ................
    1088:	01b2 0000 01b2 0000 0118 0000 009e 0000     ................
    1098:	0118 0000 0054 0000 018b 0000 00f7 0000     ....T...........
    10a8:	02b0 0000 00f7 0000 01dc 0000 01b3 0000     ................
    10b8:	01dc 0000 0318 0000 0318 0000 0318 0000     ................
    10c8:	02d9 0000 01e6 0000 0109 0000 019e 0000     ................
    10d8:	00ec 0000 0171 0000 00ec 0000 0171 0000     ....q.......q...
    10e8:	00d6 0000 0206 0000 00b4 0000 0206 0000     ................
    10f8:	01f7 0000 02aa 0000 0254 0000 0254 0000     ........T...T...
    1108:	011c 0000 0108 0000 0108 0000 01f3 0000     ................
    1118:	01f3 0000 015a 0000 015a 0000 0257 0000     ....Z...Z...W...
    1128:	0257 0000 00d7 0000 00d7 0000 02db 0000     W...............
    1138:	02db 0000 02b0 0000 0292 0000 026b 0000     ............k...
    1148:	00fb 0000 00fb 0000 0083 0000 022b 0000     ............+...
    1158:	022b 0000 022b 0000 029b 0000 0210 0000     +...+...........
    1168:	0210 0000 0210 0000 01e7 0000 01e7 0000     ................
    1178:	01e7 0000 02f1 0000 02f1 0000 011f 0000     ................
    1188:	011f 0000 0272 0000 0272 0000 0130 0000     ....r...r...0...
    1198:	000e 0000 0130 0000 0193 0000 02dd 0000     ....0...........
    11a8:	0193 0000 02dd 0000 02bf 0000 02bf 0000     ................
    11b8:	02bf 0000 02d2 0000 0332 0000 02d2 0000     ........2.......
    11c8:	0196 0000 0196 0000 036a 0000 036a 0000     ........j...j...
    11d8:	0358 0000 02ec 0000 02ec 0000 005b 0000     X...........[...
    11e8:	0056 0000 005b 0000 017a 0000 017a 0000     V...[...z...z...
    11f8:	0294 0000 0069 0000 0099 0000 0099 0000     ....i...........
    1208:	0099 0000 017d 0000 0079 0000 028b 0000     ....}...y.......
    1218:	019c 0000 0339 0000 019c 0000 0164 0000     ....9.......d...
    1228:	00ec 0000 0094 0000 0094 0000 0094 0000     ................
    1238:	01a7 0000 008c 0000 00d8 0000 00d8 0000     ................
    1248:	026d 0000 026d 0000 0169 0000 0000 0000     m...m...i.......
