
/home/ubuntu/MIT_BSV/6.175lab5/programs/benchmarks/../build/benchmarks/bin/qsort.riscv:     file format elf32-littleriscv


Disassembly of section .text:

00000100 <user_trap_entry>:
 100:	1ac0006f          	j	2ac <trap_entry>
 104:	00000013          	nop
 108:	00000013          	nop
 10c:	00000013          	nop
 110:	00000013          	nop
 114:	00000013          	nop
 118:	00000013          	nop
 11c:	00000013          	nop
 120:	00000013          	nop
 124:	00000013          	nop
 128:	00000013          	nop
 12c:	00000013          	nop
 130:	00000013          	nop
 134:	00000013          	nop
 138:	00000013          	nop
 13c:	00000013          	nop

00000140 <supervisor_trap_entry>:
 140:	0000006f          	j	140 <supervisor_trap_entry>
 144:	00000013          	nop
 148:	00000013          	nop
 14c:	00000013          	nop
 150:	00000013          	nop
 154:	00000013          	nop
 158:	00000013          	nop
 15c:	00000013          	nop
 160:	00000013          	nop
 164:	00000013          	nop
 168:	00000013          	nop
 16c:	00000013          	nop
 170:	00000013          	nop
 174:	00000013          	nop
 178:	00000013          	nop
 17c:	00000013          	nop

00000180 <hypervisor_trap_entry>:
 180:	0000006f          	j	180 <hypervisor_trap_entry>
 184:	00000013          	nop
 188:	00000013          	nop
 18c:	00000013          	nop
 190:	00000013          	nop
 194:	00000013          	nop
 198:	00000013          	nop
 19c:	00000013          	nop
 1a0:	00000013          	nop
 1a4:	00000013          	nop
 1a8:	00000013          	nop
 1ac:	00000013          	nop
 1b0:	00000013          	nop
 1b4:	00000013          	nop
 1b8:	00000013          	nop
 1bc:	00000013          	nop

000001c0 <machine_trap_entry>:
 1c0:	0ec0006f          	j	2ac <trap_entry>
 1c4:	00000013          	nop
 1c8:	00000013          	nop
 1cc:	00000013          	nop
 1d0:	00000013          	nop
 1d4:	00000013          	nop
 1d8:	00000013          	nop
 1dc:	00000013          	nop
 1e0:	00000013          	nop
 1e4:	00000013          	nop
 1e8:	00000013          	nop
 1ec:	00000013          	nop
 1f0:	00000013          	nop
 1f4:	00000013          	nop
 1f8:	00000013          	nop
 1fc:	00000013          	nop

00000200 <_start>:
 200:	00000093          	li	ra,0
 204:	00000113          	li	sp,0
 208:	00000193          	li	gp,0
 20c:	00000213          	li	tp,0
 210:	00000293          	li	t0,0
 214:	00000313          	li	t1,0
 218:	00000393          	li	t2,0
 21c:	00000413          	li	s0,0
 220:	00000493          	li	s1,0
 224:	00000513          	li	a0,0
 228:	00000593          	li	a1,0
 22c:	00000613          	li	a2,0
 230:	00000693          	li	a3,0
 234:	00000713          	li	a4,0
 238:	00000793          	li	a5,0
 23c:	00000813          	li	a6,0
 240:	00000893          	li	a7,0
 244:	00000913          	li	s2,0
 248:	00000993          	li	s3,0
 24c:	00000a13          	li	s4,0
 250:	00000a93          	li	s5,0
 254:	00000b13          	li	s6,0
 258:	00000b93          	li	s7,0
 25c:	00000c13          	li	s8,0
 260:	00000c93          	li	s9,0
 264:	00000d13          	li	s10,0
 268:	00000d93          	li	s11,0
 26c:	00000e13          	li	t3,0
 270:	00000e93          	li	t4,0
 274:	00000f13          	li	t5,0
 278:	00000f93          	li	t6,0
 27c:	00005197          	auipc	gp,0x5
 280:	c0818193          	addi	gp,gp,-1016 # 4e84 <_gp>
 284:	00004217          	auipc	tp,0x4
 288:	43f20213          	addi	tp,tp,1087 # 46c3 <_end+0x3f>
 28c:	fc027213          	andi	tp,tp,-64
 290:	f1402573          	csrr	a0,mhartid
 294:	01151613          	slli	a2,a0,0x11
 298:	00c20233          	add	tp,tp,a2
 29c:	00150113          	addi	sp,a0,1
 2a0:	01111113          	slli	sp,sp,0x11
 2a4:	00410133          	add	sp,sp,tp
 2a8:	2ce0006f          	j	576 <_init>

000002ac <trap_entry>:
 2ac:	ef010113          	addi	sp,sp,-272
 2b0:	00112423          	sw	ra,8(sp)
 2b4:	00212823          	sw	sp,16(sp)
 2b8:	00312c23          	sw	gp,24(sp)
 2bc:	02412023          	sw	tp,32(sp)
 2c0:	02512423          	sw	t0,40(sp)
 2c4:	02612823          	sw	t1,48(sp)
 2c8:	02712c23          	sw	t2,56(sp)
 2cc:	04812023          	sw	s0,64(sp)
 2d0:	04912423          	sw	s1,72(sp)
 2d4:	04a12823          	sw	a0,80(sp)
 2d8:	04b12c23          	sw	a1,88(sp)
 2dc:	06c12023          	sw	a2,96(sp)
 2e0:	06d12423          	sw	a3,104(sp)
 2e4:	06e12823          	sw	a4,112(sp)
 2e8:	06f12c23          	sw	a5,120(sp)
 2ec:	09012023          	sw	a6,128(sp)
 2f0:	09112423          	sw	a7,136(sp)
 2f4:	09212823          	sw	s2,144(sp)
 2f8:	09312c23          	sw	s3,152(sp)
 2fc:	0b412023          	sw	s4,160(sp)
 300:	0b512423          	sw	s5,168(sp)
 304:	0b612823          	sw	s6,176(sp)
 308:	0b712c23          	sw	s7,184(sp)
 30c:	0d812023          	sw	s8,192(sp)
 310:	0d912423          	sw	s9,200(sp)
 314:	0da12823          	sw	s10,208(sp)
 318:	0db12c23          	sw	s11,216(sp)
 31c:	0fc12023          	sw	t3,224(sp)
 320:	0fd12423          	sw	t4,232(sp)
 324:	0fe12823          	sw	t5,240(sp)
 328:	0ff12c23          	sw	t6,248(sp)
 32c:	34202573          	csrr	a0,mcause
 330:	341025f3          	csrr	a1,mepc
 334:	00010613          	mv	a2,sp
 338:	238000ef          	jal	570 <handle_trap>
 33c:	34151073          	csrw	mepc,a0
 340:	00812083          	lw	ra,8(sp)
 344:	01012103          	lw	sp,16(sp)
 348:	01812183          	lw	gp,24(sp)
 34c:	02012203          	lw	tp,32(sp)
 350:	02812283          	lw	t0,40(sp)
 354:	03012303          	lw	t1,48(sp)
 358:	03812383          	lw	t2,56(sp)
 35c:	04012403          	lw	s0,64(sp)
 360:	04812483          	lw	s1,72(sp)
 364:	05012503          	lw	a0,80(sp)
 368:	05812583          	lw	a1,88(sp)
 36c:	06012603          	lw	a2,96(sp)
 370:	06812683          	lw	a3,104(sp)
 374:	07012703          	lw	a4,112(sp)
 378:	07812783          	lw	a5,120(sp)
 37c:	08012803          	lw	a6,128(sp)
 380:	08812883          	lw	a7,136(sp)
 384:	09012903          	lw	s2,144(sp)
 388:	09812983          	lw	s3,152(sp)
 38c:	0a012a03          	lw	s4,160(sp)
 390:	0a812a83          	lw	s5,168(sp)
 394:	0b012b03          	lw	s6,176(sp)
 398:	0b812b83          	lw	s7,184(sp)
 39c:	0c012c03          	lw	s8,192(sp)
 3a0:	0c812c83          	lw	s9,200(sp)
 3a4:	0d012d03          	lw	s10,208(sp)
 3a8:	0d812d83          	lw	s11,216(sp)
 3ac:	0e012e03          	lw	t3,224(sp)
 3b0:	0e812e83          	lw	t4,232(sp)
 3b4:	0f012f03          	lw	t5,240(sp)
 3b8:	0f812f83          	lw	t6,248(sp)
 3bc:	11010113          	addi	sp,sp,272
 3c0:	30200073          	mret

000003c4 <sort>:
 3c4:	7155                	addi	sp,sp,-208
 3c6:	050a                	slli	a0,a0,0x2
 3c8:	00810f13          	addi	t5,sp,8
 3cc:	40000fb7          	lui	t6,0x40000
 3d0:	8eae                	mv	t4,a1
 3d2:	00a588b3          	add	a7,a1,a0
 3d6:	837a                	mv	t1,t5
 3d8:	0591                	addi	a1,a1,4
 3da:	02400e13          	li	t3,36
 3de:	1ffd                	addi	t6,t6,-1 # 3fffffff <_gp+0x3fffb17b>
 3e0:	40b887b3          	sub	a5,a7,a1
 3e4:	04fe4063          	blt	t3,a5,424 <sort+0x60>
 3e8:	ffc58613          	addi	a2,a1,-4
 3ec:	0315f163          	bgeu	a1,a7,40e <sort+0x4a>
 3f0:	4194                	lw	a3,0(a1)
 3f2:	87ae                	mv	a5,a1
 3f4:	a029                	j	3fe <sort+0x3a>
 3f6:	c398                	sw	a4,0(a5)
 3f8:	17f1                	addi	a5,a5,-4
 3fa:	00f60663          	beq	a2,a5,406 <sort+0x42>
 3fe:	ffc7a703          	lw	a4,-4(a5)
 402:	fee6cae3          	blt	a3,a4,3f6 <sort+0x32>
 406:	c394                	sw	a3,0(a5)
 408:	0591                	addi	a1,a1,4
 40a:	ff15e3e3          	bltu	a1,a7,3f0 <sort+0x2c>
 40e:	0de30c63          	beq	t1,t5,4e6 <sort+0x122>
 412:	00032883          	lw	a7,0(t1)
 416:	ffc32583          	lw	a1,-4(t1)
 41a:	1361                	addi	t1,t1,-8
 41c:	40b887b3          	sub	a5,a7,a1
 420:	fcfe54e3          	bge	t3,a5,3e8 <sort+0x24>
 424:	41d58733          	sub	a4,a1,t4
 428:	41d887b3          	sub	a5,a7,t4
 42c:	8789                	srai	a5,a5,0x2
 42e:	8709                	srai	a4,a4,0x2
 430:	973e                	add	a4,a4,a5
 432:	01f75793          	srli	a5,a4,0x1f
 436:	97ba                	add	a5,a5,a4
 438:	8785                	srai	a5,a5,0x1
 43a:	97fe                	add	a5,a5,t6
 43c:	078a                	slli	a5,a5,0x2
 43e:	4198                	lw	a4,0(a1)
 440:	97f6                	add	a5,a5,t4
 442:	4394                	lw	a3,0(a5)
 444:	c398                	sw	a4,0(a5)
 446:	ffc5a703          	lw	a4,-4(a1)
 44a:	c194                	sw	a3,0(a1)
 44c:	ffc8a783          	lw	a5,-4(a7)
 450:	00e7d863          	bge	a5,a4,460 <sort+0x9c>
 454:	fef5ae23          	sw	a5,-4(a1)
 458:	fee8ae23          	sw	a4,-4(a7)
 45c:	4194                	lw	a3,0(a1)
 45e:	87ba                	mv	a5,a4
 460:	00d7d663          	bge	a5,a3,46c <sort+0xa8>
 464:	c19c                	sw	a5,0(a1)
 466:	fed8ae23          	sw	a3,-4(a7)
 46a:	4194                	lw	a3,0(a1)
 46c:	ffc5a783          	lw	a5,-4(a1)
 470:	00f6d663          	bge	a3,a5,47c <sort+0xb8>
 474:	fed5ae23          	sw	a3,-4(a1)
 478:	c19c                	sw	a5,0(a1)
 47a:	86be                	mv	a3,a5
 47c:	00458513          	addi	a0,a1,4
 480:	87c6                	mv	a5,a7
 482:	00052803          	lw	a6,0(a0)
 486:	0511                	addi	a0,a0,4
 488:	fed84de3          	blt	a6,a3,482 <sort+0xbe>
 48c:	ff87a703          	lw	a4,-8(a5)
 490:	863e                	mv	a2,a5
 492:	17f1                	addi	a5,a5,-4
 494:	fee6cce3          	blt	a3,a4,48c <sort+0xc8>
 498:	00a7e763          	bltu	a5,a0,4a6 <sort+0xe2>
 49c:	fee52e23          	sw	a4,-4(a0)
 4a0:	ff07ae23          	sw	a6,-4(a5)
 4a4:	bff9                	j	482 <sort+0xbe>
 4a6:	40a88833          	sub	a6,a7,a0
 4aa:	c198                	sw	a4,0(a1)
 4ac:	40285713          	srai	a4,a6,0x2
 4b0:	40b78833          	sub	a6,a5,a1
 4b4:	fed7ae23          	sw	a3,-4(a5)
 4b8:	00170793          	addi	a5,a4,1
 4bc:	40285713          	srai	a4,a6,0x2
 4c0:	00830693          	addi	a3,t1,8
 4c4:	1661                	addi	a2,a2,-8
 4c6:	00e7c963          	blt	a5,a4,4d8 <sort+0x114>
 4ca:	01132423          	sw	a7,8(t1)
 4ce:	00a32223          	sw	a0,4(t1)
 4d2:	88b2                	mv	a7,a2
 4d4:	8336                	mv	t1,a3
 4d6:	b729                	j	3e0 <sort+0x1c>
 4d8:	00b32223          	sw	a1,4(t1)
 4dc:	00c32423          	sw	a2,8(t1)
 4e0:	85aa                	mv	a1,a0
 4e2:	8336                	mv	t1,a3
 4e4:	bdf5                	j	3e0 <sort+0x1c>
 4e6:	6169                	addi	sp,sp,208
 4e8:	8082                	ret
 4ea:	0000                	unimp

000004ec <printInt>:
 4ec:	01051793          	slli	a5,a0,0x10
 4f0:	00020737          	lui	a4,0x20
 4f4:	83c1                	srli	a5,a5,0x10
 4f6:	8fd9                	or	a5,a5,a4
 4f8:	34079073          	csrw	mscratch,a5
 4fc:	000307b7          	lui	a5,0x30
 500:	8141                	srli	a0,a0,0x10
 502:	8d5d                	or	a0,a0,a5
 504:	34051073          	csrw	mscratch,a0
 508:	8082                	ret

0000050a <printChar>:
 50a:	0542                	slli	a0,a0,0x10
 50c:	67c1                	lui	a5,0x10
 50e:	8141                	srli	a0,a0,0x10
 510:	8d5d                	or	a0,a0,a5
 512:	34051073          	csrw	mscratch,a0
 516:	8082                	ret

00000518 <printStr>:
 518:	ffc57793          	andi	a5,a0,-4
 51c:	4394                	lw	a3,0(a5)
 51e:	00351713          	slli	a4,a0,0x3
 522:	8b61                	andi	a4,a4,24
 524:	0ff00793          	li	a5,255
 528:	00e797b3          	sll	a5,a5,a4
 52c:	8ff5                	and	a5,a5,a3
 52e:	00e7d7b3          	srl	a5,a5,a4
 532:	cb85                	beqz	a5,562 <printStr+0x4a>
 534:	6641                	lui	a2,0x10
 536:	fff60813          	addi	a6,a2,-1 # ffff <_gp+0xb17b>
 53a:	0ff00593          	li	a1,255
 53e:	0107f7b3          	and	a5,a5,a6
 542:	8fd1                	or	a5,a5,a2
 544:	34079073          	csrw	mscratch,a5
 548:	0505                	addi	a0,a0,1
 54a:	ffc57793          	andi	a5,a0,-4
 54e:	4394                	lw	a3,0(a5)
 550:	00351713          	slli	a4,a0,0x3
 554:	8b61                	andi	a4,a4,24
 556:	00e597b3          	sll	a5,a1,a4
 55a:	8ff5                	and	a5,a5,a3
 55c:	00e7d7b3          	srl	a5,a5,a4
 560:	fff9                	bnez	a5,53e <printStr+0x26>
 562:	8082                	ret

00000564 <toHostExit>:
 564:	01051793          	slli	a5,a0,0x10
 568:	83c1                	srli	a5,a5,0x10
 56a:	34079073          	csrw	mscratch,a5
 56e:	a001                	j	56e <toHostExit+0xa>

00000570 <handle_trap>:
 570:	00458513          	addi	a0,a1,4
 574:	8082                	ret

00000576 <_init>:
 576:	1141                	addi	sp,sp,-16
 578:	4581                	li	a1,0
 57a:	4501                	li	a0,0
 57c:	c606                	sw	ra,12(sp)
 57e:	2801                	jal	58e <main>
 580:	01051793          	slli	a5,a0,0x10
 584:	83c1                	srli	a5,a5,0x10
 586:	34079073          	csrw	mscratch,a5
 58a:	a001                	j	58a <_init+0x14>
 58c:	0000                	unimp

Disassembly of section .text.startup:

0000058e <main>:
 58e:	1101                	addi	sp,sp,-32
 590:	63800513          	li	a0,1592
 594:	ce06                	sw	ra,28(sp)
 596:	cc22                	sw	s0,24(sp)
 598:	ca26                	sw	s1,20(sp)
 59a:	c84a                	sw	s2,16(sp)
 59c:	c64e                	sw	s3,12(sp)
 59e:	3fad                	jal	518 <printStr>
 5a0:	c00024f3          	rdcycle	s1
 5a4:	c02029f3          	rdinstret	s3
 5a8:	6409                	lui	s0,0x2
 5aa:	6505                	lui	a0,0x1
 5ac:	68440593          	addi	a1,s0,1668 # 2684 <input_data>
 5b0:	80050513          	addi	a0,a0,-2048 # 800 <verify_data+0x17c>
 5b4:	3d01                	jal	3c4 <sort>
 5b6:	c0002973          	rdcycle	s2
 5ba:	40990933          	sub	s2,s2,s1
 5be:	c02024f3          	rdinstret	s1
 5c2:	64c00513          	li	a0,1612
 5c6:	3f89                	jal	518 <printStr>
 5c8:	854a                	mv	a0,s2
 5ca:	370d                	jal	4ec <printInt>
 5cc:	4529                	li	a0,10
 5ce:	3f35                	jal	50a <printChar>
 5d0:	65800513          	li	a0,1624
 5d4:	3791                	jal	518 <printStr>
 5d6:	413484b3          	sub	s1,s1,s3
 5da:	8526                	mv	a0,s1
 5dc:	3f01                	jal	4ec <printInt>
 5de:	4529                	li	a0,10
 5e0:	372d                	jal	50a <printChar>
 5e2:	68440793          	addi	a5,s0,1668
 5e6:	68400713          	li	a4,1668
 5ea:	4401                	li	s0,0
 5ec:	a021                	j	5f4 <main+0x66>
 5ee:	0791                	addi	a5,a5,4 # 10004 <_gp+0xb180>
 5f0:	0711                	addi	a4,a4,4 # 20004 <_gp+0x1b180>
 5f2:	c59d                	beqz	a1,620 <main+0x92>
 5f4:	4390                	lw	a2,0(a5)
 5f6:	4314                	lw	a3,0(a4)
 5f8:	0405                	addi	s0,s0,1
 5fa:	80040593          	addi	a1,s0,-2048
 5fe:	fed608e3          	beq	a2,a3,5ee <main+0x60>
 602:	66400513          	li	a0,1636
 606:	3f09                	jal	518 <printStr>
 608:	8522                	mv	a0,s0
 60a:	35cd                	jal	4ec <printInt>
 60c:	4529                	li	a0,10
 60e:	3df5                	jal	50a <printChar>
 610:	40f2                	lw	ra,28(sp)
 612:	8522                	mv	a0,s0
 614:	4462                	lw	s0,24(sp)
 616:	44d2                	lw	s1,20(sp)
 618:	4942                	lw	s2,16(sp)
 61a:	49b2                	lw	s3,12(sp)
 61c:	6105                	addi	sp,sp,32
 61e:	8082                	ret
 620:	4401                	li	s0,0
 622:	b7c5                	j	602 <main+0x74>
 624:	1141                	addi	sp,sp,-16
 626:	66c00513          	li	a0,1644
 62a:	c606                	sw	ra,12(sp)
 62c:	35f5                	jal	518 <printStr>
 62e:	40b2                	lw	ra,12(sp)
 630:	557d                	li	a0,-1
 632:	0141                	addi	sp,sp,16
 634:	8082                	ret
